target datalayout = "e-m:e-p270:32:32-p271:32:32-p272:64:64-i64:64-i128:128-f80:128-n8:16:32:64-S128"
target triple = "x86_64-pc-linux-gnu"

%struct.rb_data_type_struct = type { ptr, %struct.anon.2, ptr, ptr, i64 }
%struct.anon.2 = type { ptr, ptr, ptr, ptr, [1 x ptr] }
%struct.zstream = type { i64, i64, i64, i64, %struct.z_stream_s, ptr }
%struct.z_stream_s = type { ptr, i32, i64, ptr, i32, i64, ptr, ptr, ptr, ptr, ptr, i32, i64, i64 }
%struct.gzfile = type { %struct.zstream, i64, i32, i32, i64, i64, i64, i64, i32, i32, i64, ptr, ptr, ptr, ptr, i64, i64 }
%struct.RString = type { %struct.RBasic, i64, %union.anon }
%struct.RBasic = type { i64, i64 }
%union.anon = type { %struct.anon }
%struct.anon = type { ptr, %union.anon.0 }
%union.anon.0 = type { i64 }
%struct.anon.1 = type { [1 x i8] }

@cGzError = internal global i64 0, align 8
@gzfile_data_type = internal constant %struct.rb_data_type_struct { ptr @.str.163, %struct.anon.2 { ptr @gzfile_mark, ptr @gzfile_free, ptr @gzfile_memsize, ptr null, [1 x ptr] zeroinitializer }, ptr null, ptr null, i64 1 }, align 8
@.str.165 = private unnamed_addr constant [19 x i8] c"closed gzip stream\00", align 1

; Function Attrs: inlinehint nounwind sspstrong willreturn memory(read) uwtable
define internal i64 @RB_FL_TEST_RAW(i64 noundef %0, i64 noundef %1) #6 {
  %3 = alloca i64, align 8
  %4 = alloca i64, align 8
  store i64 %0, ptr %3, align 8, !tbaa !6
  store i64 %1, ptr %4, align 8, !tbaa !6
  %5 = load i64, ptr %3, align 8, !tbaa !6
  %6 = inttoptr i64 %5 to ptr
  %7 = getelementptr inbounds nuw %struct.RBasic, ptr %6, i32 0, i32 0
  %8 = load i64, ptr %7, align 8, !tbaa !91
  %9 = load i64, ptr %4, align 8, !tbaa !6
  %10 = and i64 %8, %9
  ret i64 %10
}

; Function Attrs: inlinehint nounwind sspstrong willreturn memory(read) uwtable
define internal zeroext i1 @RB_FL_ANY_RAW(i64 noundef %0, i64 noundef %1) #6 {
  %3 = alloca i64, align 8
  %4 = alloca i64, align 8
  store i64 %0, ptr %3, align 8, !tbaa !6
  store i64 %1, ptr %4, align 8, !tbaa !6
  %5 = load i64, ptr %3, align 8, !tbaa !6
  %6 = load i64, ptr %4, align 8, !tbaa !6
  %7 = call i64 @RB_FL_TEST_RAW(i64 noundef %5, i64 noundef %6) #25
  %8 = icmp ne i64 %7, 0
  ret i1 %8
}

; Function Attrs: inlinehint nounwind sspstrong willreturn memory(read, argmem: readwrite) uwtable
define internal void @rbimpl_rstring_getmem(ptr dead_on_unwind noalias writable sret(%struct.RString) align 8 %0, i64 noundef %1) #9 {
  %3 = alloca i64, align 8
  store i64 %1, ptr %3, align 8, !tbaa !6
  %4 = load i64, ptr %3, align 8, !tbaa !6
  %5 = call zeroext i1 @RB_FL_ANY_RAW(i64 noundef %4, i64 noundef 8192) #25
  br i1 %5, label %6, label %9

6:                                                ; preds = %2
  %7 = load i64, ptr %3, align 8, !tbaa !6
  %8 = inttoptr i64 %7 to ptr
  call void @llvm.memcpy.p0.p0.i64(ptr align 8 %0, ptr align 8 %8, i64 40, i1 false), !tbaa.struct !92
  br label %20

9:                                                ; preds = %2
  %10 = load i64, ptr %3, align 8, !tbaa !6
  %11 = call i64 @RSTRING_LEN(i64 noundef %10) #25
  %12 = getelementptr inbounds nuw %struct.RString, ptr %0, i32 0, i32 1
  store i64 %11, ptr %12, align 8, !tbaa !88
  %13 = load i64, ptr %3, align 8, !tbaa !6
  %14 = inttoptr i64 %13 to ptr
  %15 = getelementptr inbounds nuw %struct.RString, ptr %14, i32 0, i32 2
  %16 = getelementptr inbounds nuw %struct.anon.1, ptr %15, i32 0, i32 0
  %17 = getelementptr inbounds [1 x i8], ptr %16, i64 0, i64 0
  %18 = getelementptr inbounds nuw %struct.RString, ptr %0, i32 0, i32 2
  %19 = getelementptr inbounds nuw %struct.anon, ptr %18, i32 0, i32 0
  store ptr %17, ptr %19, align 8, !tbaa !68
  br label %20

20:                                               ; preds = %9, %6
  ret void
}

; Function Attrs: nounwind sspstrong uwtable
define internal void @gzfile_ungets(ptr noundef %0, ptr noundef %1, i64 noundef %2) #0 {
  %4 = alloca ptr, align 8
  %5 = alloca ptr, align 8
  %6 = alloca i64, align 8
  store ptr %0, ptr %4, align 8, !tbaa !57
  store ptr %1, ptr %5, align 8, !tbaa !19
  store i64 %2, ptr %6, align 8, !tbaa !6
  %7 = load ptr, ptr %4, align 8, !tbaa !57
  %8 = getelementptr inbounds nuw %struct.gzfile, ptr %7, i32 0, i32 0
  %9 = load ptr, ptr %5, align 8, !tbaa !19
  %10 = load i64, ptr %6, align 8, !tbaa !6
  call void @zstream_buffer_ungets(ptr noundef %8, ptr noundef %9, i64 noundef %10)
  %11 = load i64, ptr %6, align 8, !tbaa !6
  %12 = load ptr, ptr %4, align 8, !tbaa !57
  %13 = getelementptr inbounds nuw %struct.gzfile, ptr %12, i32 0, i32 10
  %14 = load i64, ptr %13, align 8, !tbaa !139
  %15 = add nsw i64 %14, %11
  store i64 %15, ptr %13, align 8, !tbaa !139
  ret void
}

; Function Attrs: inlinehint nounwind sspstrong willreturn memory(read) uwtable
define internal i64 @RSTRING_LEN(i64 noundef %0) #6 {
  %2 = alloca i64, align 8
  store i64 %0, ptr %2, align 8, !tbaa !6
  %3 = load i64, ptr %2, align 8, !tbaa !6
  %4 = inttoptr i64 %3 to ptr
  %5 = getelementptr inbounds nuw %struct.RString, ptr %4, i32 0, i32 1
  %6 = load i64, ptr %5, align 8, !tbaa !88
  ret i64 %6
}

; Function Attrs: inlinehint nounwind sspstrong uwtable
define internal ptr @RSTRING_PTR(i64 noundef %0) #3 {
  %2 = alloca i64, align 8
  %3 = alloca ptr, align 8
  %4 = alloca %struct.RString, align 8
  store i64 %0, ptr %2, align 8, !tbaa !6
  call void @llvm.lifetime.start.p0(i64 8, ptr %3) #23
  %5 = load i64, ptr %2, align 8, !tbaa !6
  call void @rbimpl_rstring_getmem(ptr dead_on_unwind writable sret(%struct.RString) align 8 %4, i64 noundef %5) #28
  %6 = getelementptr inbounds nuw %struct.RString, ptr %4, i32 0, i32 2
  %7 = getelementptr inbounds nuw %struct.anon, ptr %6, i32 0, i32 0
  %8 = load ptr, ptr %7, align 8, !tbaa !68
  store ptr %8, ptr %3, align 8, !tbaa !19
  %9 = load ptr, ptr %3, align 8, !tbaa !19
  call void @llvm.lifetime.end.p0(i64 8, ptr %3) #23
  ret ptr %9
}

; Function Attrs: nounwind sspstrong uwtable
define internal ptr @get_gzfile(i64 noundef %0) #0 {
  %2 = alloca i64, align 8
  %3 = alloca ptr, align 8
  store i64 %0, ptr %2, align 8, !tbaa !6
  call void @llvm.lifetime.start.p0(i64 8, ptr %3) #23
  %4 = load i64, ptr %2, align 8, !tbaa !6
  %5 = call ptr @rb_check_typeddata(i64 noundef %4, ptr noundef @gzfile_data_type)
  store ptr %5, ptr %3, align 8, !tbaa !57
  %6 = load ptr, ptr %3, align 8, !tbaa !57
  %7 = getelementptr inbounds nuw %struct.gzfile, ptr %6, i32 0, i32 0
  %8 = getelementptr inbounds nuw %struct.zstream, ptr %7, i32 0, i32 0
  %9 = load i64, ptr %8, align 8, !tbaa !59
  %10 = and i64 %9, 1
  %11 = icmp ne i64 %10, 0
  br i1 %11, label %14, label %12

12:                                               ; preds = %1
  %13 = load i64, ptr @cGzError, align 8, !tbaa !6
  call void (i64, ptr, ...) @rb_raise(i64 noundef %13, ptr noundef @.str.165) #26
  unreachable

14:                                               ; preds = %1
  %15 = load ptr, ptr %3, align 8, !tbaa !57
  call void @llvm.lifetime.end.p0(i64 8, ptr %3) #23
  ret ptr %15
}

; Function Attrs: inlinehint nounwind sspstrong willreturn memory(none) uwtable
define internal zeroext i1 @RB_FIXNUM_P(i64 noundef %0) #5 {
  %2 = alloca i64, align 8
  store i64 %0, ptr %2, align 8, !tbaa !6
  %3 = load i64, ptr %2, align 8, !tbaa !6
  %4 = and i64 %3, 1
  %5 = icmp ne i64 %4, 0
  ret i1 %5
}

; Function Attrs: nounwind sspstrong uwtable
define internal i64 @rb_gzreader_ungetc(i64 noundef %0, i64 noundef %1) #0 {
  %3 = alloca i64, align 8
  %4 = alloca i64, align 8
  %5 = alloca i64, align 8
  %6 = alloca ptr, align 8
  %7 = alloca i32, align 4
  %8 = alloca ptr, align 8
  %9 = alloca ptr, align 8
  store i64 %0, ptr %4, align 8, !tbaa !6
  store i64 %1, ptr %5, align 8, !tbaa !6
  call void @llvm.lifetime.start.p0(i64 8, ptr %6) #23
  %10 = load i64, ptr %5, align 8, !tbaa !6
  %11 = call zeroext i1 @RB_FIXNUM_P(i64 noundef %10) #24
  br i1 %11, label %12, label %16

12:                                               ; preds = %2
  %13 = load i64, ptr %4, align 8, !tbaa !6
  %14 = load i64, ptr %5, align 8, !tbaa !6
  %15 = call i64 @rb_gzreader_ungetbyte(i64 noundef %13, i64 noundef %14)
  store i64 %15, ptr %3, align 8
  store i32 1, ptr %7, align 4
  br label %47

16:                                               ; preds = %2
  %17 = load i64, ptr %4, align 8, !tbaa !6
  %18 = call ptr @get_gzfile(i64 noundef %17)
  store ptr %18, ptr %6, align 8, !tbaa !57
  %19 = call i64 @rb_string_value(ptr noundef %5)
  %20 = load ptr, ptr %6, align 8, !tbaa !57
  %21 = getelementptr inbounds nuw %struct.gzfile, ptr %20, i32 0, i32 13
  %22 = load ptr, ptr %21, align 8, !tbaa !65
  %23 = icmp ne ptr %22, null
  br i1 %23, label %24, label %38

24:                                               ; preds = %16
  %25 = load ptr, ptr %6, align 8, !tbaa !57
  %26 = getelementptr inbounds nuw %struct.gzfile, ptr %25, i32 0, i32 13
  %27 = load ptr, ptr %26, align 8, !tbaa !65
  %28 = call nonnull ptr @rb_ascii8bit_encoding()
  %29 = icmp ne ptr %27, %28
  br i1 %29, label %30, label %38

30:                                               ; preds = %24
  %31 = load i64, ptr %5, align 8, !tbaa !6
  %32 = load i64, ptr %5, align 8, !tbaa !6
  %33 = call ptr @rb_enc_get(i64 noundef %32)
  %34 = load ptr, ptr %6, align 8, !tbaa !57
  %35 = getelementptr inbounds nuw %struct.gzfile, ptr %34, i32 0, i32 13
  %36 = load ptr, ptr %35, align 8, !tbaa !65
  %37 = call i64 @rb_str_conv_enc(i64 noundef %31, ptr noundef %33, ptr noundef %36)
  store i64 %37, ptr %5, align 8, !tbaa !6
  br label %38

38:                                               ; preds = %30, %24, %16
  %39 = load ptr, ptr %6, align 8, !tbaa !57
  %40 = load i64, ptr %5, align 8, !tbaa !6
  %41 = call ptr @RSTRING_PTR(i64 noundef %40)
  %42 = load i64, ptr %5, align 8, !tbaa !6
  %43 = call i64 @RSTRING_LEN(i64 noundef %42) #25
  call void @gzfile_ungets(ptr noundef %39, ptr noundef %41, i64 noundef %43)
  call void @llvm.lifetime.start.p0(i64 8, ptr %8) #23
  store ptr %5, ptr %8, align 8, !tbaa !12
  call void asm sideeffect "", "*m,~{dirflag},~{fpsr},~{flags}"(ptr elementtype(ptr) %8) #23, !srcloc !72
  %44 = load ptr, ptr %8, align 8, !tbaa !12
  store ptr %44, ptr %9, align 8, !tbaa !12
  call void @llvm.lifetime.end.p0(i64 8, ptr %8) #23
  %45 = load ptr, ptr %9, align 8, !tbaa !12
  %46 = load volatile i64, ptr %45, align 8, !tbaa !6
  store i64 4, ptr %3, align 8
  store i32 1, ptr %7, align 4
  br label %47

47:                                               ; preds = %38, %12
  call void @llvm.lifetime.end.p0(i64 8, ptr %6) #23
  %48 = load i64, ptr %3, align 8
  ret i64 %48
}