; Function Attrs: nounwind sspstrong uwtable
define internal noundef i64 @rb_gzreader_ungetc(i64 noundef %0, i64 noundef %1) #0 {
  %3 = alloca i64, align 8
  %4 = alloca ptr, align 8
  store i64 %1, ptr %3, align 8, !tbaa !6
  %5 = and i64 %1, 1
  %.not9 = icmp eq i64 %5, 0
  br i1 %.not9, label %8, label %6

6:                                                ; preds = %2
  %7 = tail call i64 @rb_gzreader_ungetbyte(i64 noundef %0, i64 noundef %1)
  br label %37

8:                                                ; preds = %2
  %9 = tail call ptr @rb_check_typeddata(i64 noundef %0, ptr noundef nonnull @gzfile_data_type) #18
  %10 = load i64, ptr %9, align 8, !tbaa !113
  %11 = and i64 %10, 1
  %.not.i = icmp eq i64 %11, 0
  br i1 %.not.i, label %12, label %get_gzfile.exit

12:                                               ; preds = %8
  %13 = load i64, ptr @cGzError, align 8, !tbaa !6
  tail call void (i64, ptr, ...) @rb_raise(i64 noundef %13, ptr noundef nonnull @.str.165) #19
  unreachable

get_gzfile.exit:                                  ; preds = %8
  %14 = call i64 @rb_string_value(ptr noundef nonnull %3) #18
  %15 = getelementptr inbounds nuw i8, ptr %9, i64 232
  %16 = load ptr, ptr %15, align 8, !tbaa !137
  %.not = icmp eq ptr %16, null
  br i1 %.not, label %get_gzfile.exit._crit_edge, label %17

get_gzfile.exit._crit_edge:                       ; preds = %get_gzfile.exit
  %.pre = load i64, ptr %3, align 8, !tbaa !6
  br label %23

17:                                               ; preds = %get_gzfile.exit
  %18 = call nonnull ptr @rb_ascii8bit_encoding() #18
  %.not8 = icmp eq ptr %16, %18
  %.pre10 = load i64, ptr %3, align 8, !tbaa !6
  br i1 %.not8, label %23, label %19

19:                                               ; preds = %17
  %20 = call ptr @rb_enc_get(i64 noundef %.pre10) #18
  %21 = load ptr, ptr %15, align 8, !tbaa !137
  %22 = call i64 @rb_str_conv_enc(i64 noundef %.pre10, ptr noundef %20, ptr noundef %21) #18
  store i64 %22, ptr %3, align 8, !tbaa !6
  br label %23

23:                                               ; preds = %get_gzfile.exit._crit_edge, %19, %17
  %24 = phi i64 [ %.pre, %get_gzfile.exit._crit_edge ], [ %22, %19 ], [ %.pre10, %17 ]
  %25 = inttoptr i64 %24 to ptr
  %26 = load i64, ptr %25, align 8, !tbaa !16, !noalias !189
  %27 = and i64 %26, 8192
  %.not.i.i = icmp eq i64 %27, 0
  %28 = getelementptr inbounds nuw i8, ptr %25, i64 24
  br i1 %.not.i.i, label %RSTRING_PTR.exit, label %29

29:                                               ; preds = %23
  %.sroa.2.0.copyload.i = load ptr, ptr %28, align 8
  br label %RSTRING_PTR.exit

RSTRING_PTR.exit:                                 ; preds = %23, %29
  %.sroa.2.0.i = phi ptr [ %.sroa.2.0.copyload.i, %29 ], [ %28, %23 ]
  %30 = getelementptr inbounds nuw i8, ptr %25, i64 16
  %31 = load i64, ptr %30, align 8, !tbaa !21
  call fastcc void @zstream_buffer_ungets(ptr noundef nonnull %9, ptr noundef %.sroa.2.0.i, i64 noundef %31)
  %32 = getelementptr inbounds nuw i8, ptr %9, i64 208
  %33 = load i64, ptr %32, align 8, !tbaa !156
  %34 = add nsw i64 %33, %31
  store i64 %34, ptr %32, align 8, !tbaa !156
  call void @llvm.lifetime.start.p0(i64 8, ptr nonnull %4) #18
  store ptr %3, ptr %4, align 8, !tbaa !10
  call void asm sideeffect "", "*m,~{dirflag},~{fpsr},~{flags}"(ptr nonnull elementtype(ptr) %4) #18, !srcloc !192
  %35 = load ptr, ptr %4, align 8, !tbaa !10
  call void @llvm.lifetime.end.p0(i64 8, ptr nonnull %4) #18
  %36 = load volatile i64, ptr %35, align 8, !tbaa !6
  br label %37

37:                                               ; preds = %RSTRING_PTR.exit, %6
  ret i64 4
}